(lp1
S'/home/masa/project/nii/t0000190_6'
p2
aS'/home/masa/project/nii/t0008612_8'
p3
aS'/home/masa/project/nii/t0012040_4'
p4
aS'/home/masa/project/nii/t0003005_4'
p5
aS'/home/masa/project/nii/t0013655_8'
p6
aS'/home/masa/project/nii/t0009091_4'
p7
aS'/home/masa/project/nii/t0009883_6'
p8
aS'/home/masa/project/nii/t0001468_4'
p9
aS'/home/masa/project/nii/t0012587_6'
p10
aS'/home/masa/project/nii/t0005276_4'
p11
aS'/home/masa/project/nii/t0013630_4'
p12
aS'/home/masa/project/nii/t0010855_9'
p13
aS'/home/masa/project/nii/t0004946_4'
p14
aS'/home/masa/project/nii/t0004946_5'
p15
aS'/home/masa/project/nii/t0013584_12'
p16
aS'/home/masa/project/nii/t0005304_4'
p17
aS'/home/masa/project/nii/t0001953_6'
p18
aS'/home/masa/project/nii/t0013656_6'
p19
aS'/home/masa/project/nii/t0004983_4'
p20
aS'/home/masa/project/nii/t0000597_4'
p21
aS'/home/masa/project/nii/t0008612_6'
p22
aS'/home/masa/project/nii/t0014612_6'
p23
aS'/home/masa/project/nii/t0008658_4'
p24
aS'/home/masa/project/nii/t0013633_6'
p25
aS'/home/masa/project/nii/t0011795_4'
p26
aS'/home/masa/project/nii/t0008411_9'
p27
aS'/home/masa/project/nii/t0010438_4'
p28
aS'/home/masa/project/nii/t0014448_4'
p29
a.